; Function Attrs: nofree norecurse nosync nounwind memory(argmem: readwrite) uwtable
define void @ff_ivi_dc_slant_2d(ptr noundef readonly captures(none) %0, ptr noundef writeonly captures(none) %1, i64 noundef %2, i32 noundef %3) local_unnamed_addr #2 {
  %5 = load i32, ptr %0, align 4, !tbaa !34
  %6 = add nsw i32 %5, 1
  %7 = lshr i32 %6, 1
  %8 = trunc i32 %7 to i16
  %9 = icmp sgt i32 %3, 0
  br i1 %9, label %.preheader.us.preheader, label %._crit_edge17

.preheader.us.preheader:                          ; preds = %4
  %wide.trip.count = zext nneg i32 %3 to i64
  br label %.preheader.us

.preheader.us:                                    ; preds = %.preheader.us.preheader, %._crit_edge.us
  %.016.us = phi ptr [ %12, %._crit_edge.us ], [ %1, %.preheader.us.preheader ]
  %.01115.us = phi i32 [ %13, %._crit_edge.us ], [ 0, %.preheader.us.preheader ]
  br label %10

10:                                               ; preds = %.preheader.us, %10
  %indvars.iv = phi i64 [ 0, %.preheader.us ], [ %indvars.iv.next, %10 ]
  %11 = getelementptr inbounds nuw i16, ptr %.016.us, i64 %indvars.iv
  store i16 %8, ptr %11, align 2, !tbaa !27
  %indvars.iv.next = add nuw nsw i64 %indvars.iv, 1
  %exitcond.not = icmp eq i64 %indvars.iv.next, %wide.trip.count
  br i1 %exitcond.not, label %._crit_edge.us, label %10, !llvm.loop !49

._crit_edge.us:                                   ; preds = %10
  %12 = getelementptr inbounds i16, ptr %.016.us, i64 %2
  %13 = add nuw nsw i32 %.01115.us, 1
  %exitcond19.not = icmp eq i32 %13, %3
  br i1 %exitcond19.not, label %._crit_edge17, label %.preheader.us, !llvm.loop !50

._crit_edge17:                                    ; preds = %._crit_edge.us, %4
  ret void
}